target datalayout = "e-m:e-p270:32:32-p271:32:32-p272:64:64-i64:64-i128:128-f80:128-n8:16:32:64-S128"
target triple = "x86_64-pc-linux-gnu"

%struct.DCADSPContext = type { ptr, ptr, [2 x ptr], ptr, [2 x ptr], ptr, ptr, [2 x ptr], ptr, ptr, ptr, ptr, ptr, ptr, ptr, ptr, ptr }

; Function Attrs: cold nounwind optsize uwtable
define void @ff_dcadsp_init(ptr noundef %0) #0 {
  %2 = alloca ptr, align 8
  store ptr %0, ptr %2, align 8, !tbaa !4
  %3 = load ptr, ptr %2, align 8, !tbaa !4
  %4 = getelementptr inbounds nuw %struct.DCADSPContext, ptr %3, i32 0, i32 0
  store ptr @decode_hf_c, ptr %4, align 8, !tbaa !9
  %5 = load ptr, ptr %2, align 8, !tbaa !4
  %6 = getelementptr inbounds nuw %struct.DCADSPContext, ptr %5, i32 0, i32 1
  store ptr @decode_joint_c, ptr %6, align 8, !tbaa !11
  %7 = load ptr, ptr %2, align 8, !tbaa !4
  %8 = getelementptr inbounds nuw %struct.DCADSPContext, ptr %7, i32 0, i32 2
  %9 = getelementptr inbounds [2 x ptr], ptr %8, i64 0, i64 0
  store ptr @lfe_fir0_float_c, ptr %9, align 8, !tbaa !12
  %10 = load ptr, ptr %2, align 8, !tbaa !4
  %11 = getelementptr inbounds nuw %struct.DCADSPContext, ptr %10, i32 0, i32 2
  %12 = getelementptr inbounds [2 x ptr], ptr %11, i64 0, i64 1
  store ptr @lfe_fir1_float_c, ptr %12, align 8, !tbaa !12
  %13 = load ptr, ptr %2, align 8, !tbaa !4
  %14 = getelementptr inbounds nuw %struct.DCADSPContext, ptr %13, i32 0, i32 3
  store ptr @lfe_x96_float_c, ptr %14, align 8, !tbaa !13
  %15 = load ptr, ptr %2, align 8, !tbaa !4
  %16 = getelementptr inbounds nuw %struct.DCADSPContext, ptr %15, i32 0, i32 4
  %17 = getelementptr inbounds [2 x ptr], ptr %16, i64 0, i64 0
  store ptr @sub_qmf32_float_c, ptr %17, align 8, !tbaa !12
  %18 = load ptr, ptr %2, align 8, !tbaa !4
  %19 = getelementptr inbounds nuw %struct.DCADSPContext, ptr %18, i32 0, i32 4
  %20 = getelementptr inbounds [2 x ptr], ptr %19, i64 0, i64 1
  store ptr @sub_qmf64_float_c, ptr %20, align 8, !tbaa !12
  %21 = load ptr, ptr %2, align 8, !tbaa !4
  %22 = getelementptr inbounds nuw %struct.DCADSPContext, ptr %21, i32 0, i32 5
  store ptr @lfe_fir_fixed_c, ptr %22, align 8, !tbaa !14
  %23 = load ptr, ptr %2, align 8, !tbaa !4
  %24 = getelementptr inbounds nuw %struct.DCADSPContext, ptr %23, i32 0, i32 6
  store ptr @lfe_x96_fixed_c, ptr %24, align 8, !tbaa !15
  %25 = load ptr, ptr %2, align 8, !tbaa !4
  %26 = getelementptr inbounds nuw %struct.DCADSPContext, ptr %25, i32 0, i32 7
  %27 = getelementptr inbounds [2 x ptr], ptr %26, i64 0, i64 0
  store ptr @sub_qmf32_fixed_c, ptr %27, align 8, !tbaa !12
  %28 = load ptr, ptr %2, align 8, !tbaa !4
  %29 = getelementptr inbounds nuw %struct.DCADSPContext, ptr %28, i32 0, i32 7
  %30 = getelementptr inbounds [2 x ptr], ptr %29, i64 0, i64 1
  store ptr @sub_qmf64_fixed_c, ptr %30, align 8, !tbaa !12
  %31 = load ptr, ptr %2, align 8, !tbaa !4
  %32 = getelementptr inbounds nuw %struct.DCADSPContext, ptr %31, i32 0, i32 8
  store ptr @decor_c, ptr %32, align 8, !tbaa !16
  %33 = load ptr, ptr %2, align 8, !tbaa !4
  %34 = getelementptr inbounds nuw %struct.DCADSPContext, ptr %33, i32 0, i32 9
  store ptr @dmix_sub_xch_c, ptr %34, align 8, !tbaa !17
  %35 = load ptr, ptr %2, align 8, !tbaa !4
  %36 = getelementptr inbounds nuw %struct.DCADSPContext, ptr %35, i32 0, i32 10
  store ptr @dmix_sub_c, ptr %36, align 8, !tbaa !18
  %37 = load ptr, ptr %2, align 8, !tbaa !4
  %38 = getelementptr inbounds nuw %struct.DCADSPContext, ptr %37, i32 0, i32 11
  store ptr @dmix_add_c, ptr %38, align 8, !tbaa !19
  %39 = load ptr, ptr %2, align 8, !tbaa !4
  %40 = getelementptr inbounds nuw %struct.DCADSPContext, ptr %39, i32 0, i32 12
  store ptr @dmix_scale_c, ptr %40, align 8, !tbaa !20
  %41 = load ptr, ptr %2, align 8, !tbaa !4
  %42 = getelementptr inbounds nuw %struct.DCADSPContext, ptr %41, i32 0, i32 13
  store ptr @dmix_scale_inv_c, ptr %42, align 8, !tbaa !21
  %43 = load ptr, ptr %2, align 8, !tbaa !4
  %44 = getelementptr inbounds nuw %struct.DCADSPContext, ptr %43, i32 0, i32 14
  store ptr @assemble_freq_bands_c, ptr %44, align 8, !tbaa !22
  %45 = load ptr, ptr %2, align 8, !tbaa !4
  %46 = getelementptr inbounds nuw %struct.DCADSPContext, ptr %45, i32 0, i32 15
  store ptr @lbr_bank_c, ptr %46, align 8, !tbaa !23
  %47 = load ptr, ptr %2, align 8, !tbaa !4
  %48 = getelementptr inbounds nuw %struct.DCADSPContext, ptr %47, i32 0, i32 16
  store ptr @lfe_iir_c, ptr %48, align 8, !tbaa !24
  ret void
}