; Function Attrs: cold mustprogress nofree norecurse nosync nounwind optsize willreturn memory(argmem: write) uwtable
define void @ff_dcadsp_init(ptr noundef writeonly captures(none) initializes((0, 160)) %0) local_unnamed_addr #0 {
  store ptr @decode_hf_c, ptr %0, align 8, !tbaa !4
  %2 = getelementptr inbounds nuw i8, ptr %0, i64 8
  store ptr @decode_joint_c, ptr %2, align 8, !tbaa !9
  %3 = getelementptr inbounds nuw i8, ptr %0, i64 16
  store ptr @lfe_fir0_float_c, ptr %3, align 8, !tbaa !10
  %4 = getelementptr inbounds nuw i8, ptr %0, i64 24
  store ptr @lfe_fir1_float_c, ptr %4, align 8, !tbaa !10
  %5 = getelementptr inbounds nuw i8, ptr %0, i64 32
  store ptr @lfe_x96_float_c, ptr %5, align 8, !tbaa !11
  %6 = getelementptr inbounds nuw i8, ptr %0, i64 40
  store ptr @sub_qmf32_float_c, ptr %6, align 8, !tbaa !10
  %7 = getelementptr inbounds nuw i8, ptr %0, i64 48
  store ptr @sub_qmf64_float_c, ptr %7, align 8, !tbaa !10
  %8 = getelementptr inbounds nuw i8, ptr %0, i64 56
  store ptr @lfe_fir_fixed_c, ptr %8, align 8, !tbaa !12
  %9 = getelementptr inbounds nuw i8, ptr %0, i64 64
  store ptr @lfe_x96_fixed_c, ptr %9, align 8, !tbaa !13
  %10 = getelementptr inbounds nuw i8, ptr %0, i64 72
  store ptr @sub_qmf32_fixed_c, ptr %10, align 8, !tbaa !10
  %11 = getelementptr inbounds nuw i8, ptr %0, i64 80
  store ptr @sub_qmf64_fixed_c, ptr %11, align 8, !tbaa !10
  %12 = getelementptr inbounds nuw i8, ptr %0, i64 88
  store ptr @decor_c, ptr %12, align 8, !tbaa !14
  %13 = getelementptr inbounds nuw i8, ptr %0, i64 96
  store ptr @dmix_sub_xch_c, ptr %13, align 8, !tbaa !15
  %14 = getelementptr inbounds nuw i8, ptr %0, i64 104
  store ptr @dmix_sub_c, ptr %14, align 8, !tbaa !16
  %15 = getelementptr inbounds nuw i8, ptr %0, i64 112
  store ptr @dmix_add_c, ptr %15, align 8, !tbaa !17
  %16 = getelementptr inbounds nuw i8, ptr %0, i64 120
  store ptr @dmix_scale_c, ptr %16, align 8, !tbaa !18
  %17 = getelementptr inbounds nuw i8, ptr %0, i64 128
  store ptr @dmix_scale_inv_c, ptr %17, align 8, !tbaa !19
  %18 = getelementptr inbounds nuw i8, ptr %0, i64 136
  store ptr @assemble_freq_bands_c, ptr %18, align 8, !tbaa !20
  %19 = getelementptr inbounds nuw i8, ptr %0, i64 144
  store ptr @lbr_bank_c, ptr %19, align 8, !tbaa !21
  %20 = getelementptr inbounds nuw i8, ptr %0, i64 152
  store ptr @lfe_iir_c, ptr %20, align 8, !tbaa !22
  ret void
}